target datalayout = "e-m:e-p270:32:32-p271:32:32-p272:64:64-i64:64-i128:128-f80:128-n8:16:32:64-S128"
target triple = "x86_64-pc-linux-gnu"

%struct.lex_context = type { i16, [2 x i8] }
%struct.parser_params = type { ptr, ptr, %struct.anon.12, i64, i64, i32, i32, i32, i32, i32, ptr, ptr, ptr, ptr, i32, i32, ptr, i64, ptr, ptr, ptr, ptr, i64, i64, %struct.anon.13, ptr, i32, ptr, i32, i64, %struct.lex_context, ptr, ptr, ptr, i16, i64, i64, i64, i64, i64, i64 }
%struct.anon.12 = type { ptr, ptr, ptr, %struct.parser_string_buffer, ptr, ptr, ptr, ptr, ptr, ptr, i32, i32, i32, i32 }
%struct.parser_string_buffer = type { ptr, ptr }
%struct.anon.13 = type { ptr, i32, i32, i32, i32 }
%struct.local_vars = type { ptr, ptr, ptr, ptr, %struct.anon.16, ptr }
%struct.anon.16 = type { ptr, ptr, ptr }
%struct.vtable = type { ptr, i32, i32, ptr }

; Function Attrs: nounwind sspstrong uwtable
define internal i32 @vtable_included(ptr noundef %0, i64 noundef %1) #0 {
  %3 = alloca i32, align 4
  %4 = alloca ptr, align 8
  %5 = alloca i64, align 8
  %6 = alloca i32, align 4
  %7 = alloca i32, align 4
  store ptr %0, ptr %4, align 8, !tbaa !468
  store i64 %1, ptr %5, align 8, !tbaa !16
  call void @llvm.lifetime.start.p0(i64 4, ptr %6) #25
  %8 = load ptr, ptr %4, align 8, !tbaa !468
  %9 = icmp eq ptr %8, inttoptr (i64 1 to ptr)
  br i1 %9, label %38, label %10

10:                                               ; preds = %2
  %11 = load ptr, ptr %4, align 8, !tbaa !468
  %12 = icmp eq ptr %11, null
  br i1 %12, label %38, label %13

13:                                               ; preds = %10
  store i32 0, ptr %6, align 4, !tbaa !14
  br label %14

14:                                               ; preds = %34, %13
  %15 = load i32, ptr %6, align 4, !tbaa !14
  %16 = load ptr, ptr %4, align 8, !tbaa !468
  %17 = getelementptr inbounds nuw %struct.vtable, ptr %16, i32 0, i32 1
  %18 = load i32, ptr %17, align 8, !tbaa !543
  %19 = icmp slt i32 %15, %18
  br i1 %19, label %20, label %37

20:                                               ; preds = %14
  %21 = load ptr, ptr %4, align 8, !tbaa !468
  %22 = getelementptr inbounds nuw %struct.vtable, ptr %21, i32 0, i32 0
  %23 = load ptr, ptr %22, align 8, !tbaa !542
  %24 = load i32, ptr %6, align 4, !tbaa !14
  %25 = sext i32 %24 to i64
  %26 = getelementptr inbounds i64, ptr %23, i64 %25
  %27 = load i64, ptr %26, align 8, !tbaa !16
  %28 = load i64, ptr %5, align 8, !tbaa !16
  %29 = icmp eq i64 %27, %28
  br i1 %29, label %30, label %33

30:                                               ; preds = %20
  %31 = load i32, ptr %6, align 4, !tbaa !14
  %32 = add nsw i32 %31, 1
  store i32 %32, ptr %3, align 4
  store i32 1, ptr %7, align 4
  br label %39

33:                                               ; preds = %20
  br label %34

34:                                               ; preds = %33
  %35 = load i32, ptr %6, align 4, !tbaa !14
  %36 = add nsw i32 %35, 1
  store i32 %36, ptr %6, align 4, !tbaa !14
  br label %14, !llvm.loop !807

37:                                               ; preds = %14
  br label %38

38:                                               ; preds = %37, %10, %2
  store i32 0, ptr %3, align 4
  store i32 1, ptr %7, align 4
  br label %39

39:                                               ; preds = %38, %30
  call void @llvm.lifetime.end.p0(i64 4, ptr %6) #25
  %40 = load i32, ptr %3, align 4
  ret i32 %40
}

; Function Attrs: nounwind sspstrong uwtable
define internal i32 @local_id_ref(ptr noundef %0, i64 noundef %1, ptr noundef %2) #0 {
  %4 = alloca i32, align 4
  %5 = alloca ptr, align 8
  %6 = alloca i64, align 8
  %7 = alloca ptr, align 8
  %8 = alloca ptr, align 8
  %9 = alloca ptr, align 8
  %10 = alloca ptr, align 8
  %11 = alloca i32, align 4
  %12 = alloca i32, align 4
  store ptr %0, ptr %5, align 8, !tbaa !6
  store i64 %1, ptr %6, align 8, !tbaa !16
  store ptr %2, ptr %7, align 8, !tbaa !804
  call void @llvm.lifetime.start.p0(i64 8, ptr %8) #25
  call void @llvm.lifetime.start.p0(i64 8, ptr %9) #25
  call void @llvm.lifetime.start.p0(i64 8, ptr %10) #25
  %13 = load ptr, ptr %5, align 8, !tbaa !6
  %14 = getelementptr inbounds nuw %struct.parser_params, ptr %13, i32 0, i32 11
  %15 = load ptr, ptr %14, align 8, !tbaa !297
  %16 = getelementptr inbounds nuw %struct.local_vars, ptr %15, i32 0, i32 1
  %17 = load ptr, ptr %16, align 8, !tbaa !303
  store ptr %17, ptr %8, align 8, !tbaa !468
  %18 = load ptr, ptr %5, align 8, !tbaa !6
  %19 = getelementptr inbounds nuw %struct.parser_params, ptr %18, i32 0, i32 11
  %20 = load ptr, ptr %19, align 8, !tbaa !297
  %21 = getelementptr inbounds nuw %struct.local_vars, ptr %20, i32 0, i32 0
  %22 = load ptr, ptr %21, align 8, !tbaa !302
  store ptr %22, ptr %9, align 8, !tbaa !468
  %23 = load ptr, ptr %5, align 8, !tbaa !6
  %24 = getelementptr inbounds nuw %struct.parser_params, ptr %23, i32 0, i32 11
  %25 = load ptr, ptr %24, align 8, !tbaa !297
  %26 = getelementptr inbounds nuw %struct.local_vars, ptr %25, i32 0, i32 2
  %27 = load ptr, ptr %26, align 8, !tbaa !308
  store ptr %27, ptr %10, align 8, !tbaa !468
  br label %28

28:                                               ; preds = %59, %3
  %29 = load ptr, ptr %8, align 8, !tbaa !468
  %30 = icmp ne ptr %29, null
  br i1 %30, label %31, label %44

31:                                               ; preds = %28
  %32 = load ptr, ptr %8, align 8, !tbaa !468
  %33 = getelementptr inbounds nuw %struct.vtable, ptr %32, i32 0, i32 3
  %34 = load ptr, ptr %33, align 8, !tbaa !469
  %35 = icmp eq ptr %34, inttoptr (i64 1 to ptr)
  br i1 %35, label %41, label %36

36:                                               ; preds = %31
  %37 = load ptr, ptr %8, align 8, !tbaa !468
  %38 = getelementptr inbounds nuw %struct.vtable, ptr %37, i32 0, i32 3
  %39 = load ptr, ptr %38, align 8, !tbaa !469
  %40 = icmp eq ptr %39, null
  br label %41

41:                                               ; preds = %36, %31
  %42 = phi i1 [ true, %31 ], [ %40, %36 ]
  %43 = xor i1 %42, true
  br label %44

44:                                               ; preds = %41, %28
  %45 = phi i1 [ false, %28 ], [ %43, %41 ]
  br i1 %45, label %46, label %60

46:                                               ; preds = %44
  %47 = load ptr, ptr %8, align 8, !tbaa !468
  %48 = getelementptr inbounds nuw %struct.vtable, ptr %47, i32 0, i32 3
  %49 = load ptr, ptr %48, align 8, !tbaa !469
  store ptr %49, ptr %8, align 8, !tbaa !468
  %50 = load ptr, ptr %9, align 8, !tbaa !468
  %51 = getelementptr inbounds nuw %struct.vtable, ptr %50, i32 0, i32 3
  %52 = load ptr, ptr %51, align 8, !tbaa !469
  store ptr %52, ptr %9, align 8, !tbaa !468
  %53 = load ptr, ptr %10, align 8, !tbaa !468
  %54 = icmp ne ptr %53, null
  br i1 %54, label %55, label %59

55:                                               ; preds = %46
  %56 = load ptr, ptr %10, align 8, !tbaa !468
  %57 = getelementptr inbounds nuw %struct.vtable, ptr %56, i32 0, i32 3
  %58 = load ptr, ptr %57, align 8, !tbaa !469
  store ptr %58, ptr %10, align 8, !tbaa !468
  br label %59

59:                                               ; preds = %55, %46
  br label %28, !llvm.loop !806

60:                                               ; preds = %44
  %61 = load ptr, ptr %8, align 8, !tbaa !468
  %62 = icmp ne ptr %61, null
  br i1 %62, label %63, label %75

63:                                               ; preds = %60
  %64 = load ptr, ptr %8, align 8, !tbaa !468
  %65 = getelementptr inbounds nuw %struct.vtable, ptr %64, i32 0, i32 3
  %66 = load ptr, ptr %65, align 8, !tbaa !469
  %67 = icmp eq ptr %66, inttoptr (i64 1 to ptr)
  br i1 %67, label %68, label %75

68:                                               ; preds = %63
  %69 = load ptr, ptr %5, align 8, !tbaa !6
  %70 = load i64, ptr %6, align 8, !tbaa !16
  %71 = load ptr, ptr %5, align 8, !tbaa !6
  %72 = getelementptr inbounds nuw %struct.parser_params, ptr %71, i32 0, i32 33
  %73 = load ptr, ptr %72, align 8, !tbaa !473
  %74 = call i32 @rb_parser_local_defined(ptr noundef %69, i64 noundef %70, ptr noundef %73)
  store i32 %74, ptr %4, align 4
  store i32 1, ptr %11, align 4
  br label %106

75:                                               ; preds = %63, %60
  %76 = load ptr, ptr %9, align 8, !tbaa !468
  %77 = load i64, ptr %6, align 8, !tbaa !16
  %78 = call i32 @vtable_included(ptr noundef %76, i64 noundef %77)
  %79 = icmp ne i32 %78, 0
  br i1 %79, label %80, label %81

80:                                               ; preds = %75
  store i32 1, ptr %4, align 4
  store i32 1, ptr %11, align 4
  br label %106

81:                                               ; preds = %75
  call void @llvm.lifetime.start.p0(i64 4, ptr %12) #25
  %82 = load ptr, ptr %8, align 8, !tbaa !468
  %83 = load i64, ptr %6, align 8, !tbaa !16
  %84 = call i32 @vtable_included(ptr noundef %82, i64 noundef %83)
  store i32 %84, ptr %12, align 4, !tbaa !14
  %85 = load i32, ptr %12, align 4, !tbaa !14
  %86 = icmp ne i32 %85, 0
  br i1 %86, label %87, label %102

87:                                               ; preds = %81
  %88 = load ptr, ptr %10, align 8, !tbaa !468
  %89 = icmp ne ptr %88, null
  br i1 %89, label %90, label %102

90:                                               ; preds = %87
  %91 = load ptr, ptr %7, align 8, !tbaa !804
  %92 = icmp ne ptr %91, null
  br i1 %92, label %93, label %102

93:                                               ; preds = %90
  %94 = load ptr, ptr %10, align 8, !tbaa !468
  %95 = getelementptr inbounds nuw %struct.vtable, ptr %94, i32 0, i32 0
  %96 = load ptr, ptr %95, align 8, !tbaa !542
  %97 = load i32, ptr %12, align 4, !tbaa !14
  %98 = sub nsw i32 %97, 1
  %99 = sext i32 %98 to i64
  %100 = getelementptr inbounds i64, ptr %96, i64 %99
  %101 = load ptr, ptr %7, align 8, !tbaa !804
  store ptr %100, ptr %101, align 8, !tbaa !544
  br label %102

102:                                              ; preds = %93, %90, %87, %81
  %103 = load i32, ptr %12, align 4, !tbaa !14
  %104 = icmp ne i32 %103, 0
  %105 = zext i1 %104 to i32
  store i32 %105, ptr %4, align 4
  store i32 1, ptr %11, align 4
  call void @llvm.lifetime.end.p0(i64 4, ptr %12) #25
  br label %106

106:                                              ; preds = %102, %80, %68
  call void @llvm.lifetime.end.p0(i64 8, ptr %10) #25
  call void @llvm.lifetime.end.p0(i64 8, ptr %9) #25
  call void @llvm.lifetime.end.p0(i64 8, ptr %8) #25
  %107 = load i32, ptr %4, align 4
  ret i32 %107
}