; Function Attrs: nounwind sspstrong uwtable
define internal fastcc i32 @local_id_ref(ptr noundef %0, i64 noundef %1, ptr noundef writeonly captures(address_is_null) %2) unnamed_addr #0 {
  %4 = getelementptr inbounds nuw i8, ptr %0, i64 168
  %5 = load ptr, ptr %4, align 8, !tbaa !89
  %6 = getelementptr inbounds nuw i8, ptr %5, i64 8
  %7 = load ptr, ptr %6, align 8, !tbaa !138
  %8 = load ptr, ptr %5, align 8, !tbaa !182
  %9 = getelementptr inbounds nuw i8, ptr %5, i64 16
  %10 = load ptr, ptr %9, align 8, !tbaa !183
  %.not58 = icmp eq ptr %7, null
  br i1 %.not58, label %.critedge37, label %.lr.ph

.lr.ph:                                           ; preds = %3, %19
  %.02961 = phi ptr [ %.1, %19 ], [ %10, %3 ]
  %.03060 = phi ptr [ %15, %19 ], [ %8, %3 ]
  %.03159 = phi ptr [ %12, %19 ], [ %7, %3 ]
  %11 = getelementptr inbounds nuw i8, ptr %.03159, i64 16
  %12 = load ptr, ptr %11, align 8, !tbaa !139
  %magicptr52 = ptrtoint ptr %12 to i64
  switch i64 %magicptr52, label %13 [
    i64 1, label %20
    i64 0, label %.critedge37
  ]

13:                                               ; preds = %.lr.ph
  %14 = getelementptr inbounds nuw i8, ptr %.03060, i64 16
  %15 = load ptr, ptr %14, align 8, !tbaa !139
  %.not36 = icmp eq ptr %.02961, null
  br i1 %.not36, label %19, label %16

16:                                               ; preds = %13
  %17 = getelementptr inbounds nuw i8, ptr %.02961, i64 16
  %18 = load ptr, ptr %17, align 8, !tbaa !139
  br label %19

19:                                               ; preds = %16, %13
  %.1 = phi ptr [ %18, %16 ], [ null, %13 ]
  %.not = icmp eq ptr %12, null
  br i1 %.not, label %.critedge37, label %.lr.ph, !llvm.loop !403

20:                                               ; preds = %.lr.ph
  %21 = getelementptr inbounds nuw i8, ptr %0, i64 352
  %22 = load ptr, ptr %21, align 8, !tbaa !361
  %23 = tail call i32 @rb_parser_local_defined(ptr noundef %0, i64 noundef %1, ptr noundef %22) #31
  br label %vtable_included.exit

.critedge37:                                      ; preds = %19, %.lr.ph, %3
  %.031.lcssa = phi ptr [ null, %3 ], [ %.03159, %.lr.ph ], [ null, %19 ]
  %.030.lcssa = phi ptr [ %8, %3 ], [ %.03060, %.lr.ph ], [ %15, %19 ]
  %.029.lcssa = phi ptr [ %10, %3 ], [ %.02961, %.lr.ph ], [ %.1, %19 ]
  %switch.i = icmp ult ptr %.030.lcssa, inttoptr (i64 2 to ptr)
  br i1 %switch.i, label %vtable_included.exit.thread, label %.preheader.i

.preheader.i:                                     ; preds = %.critedge37
  %24 = getelementptr inbounds nuw i8, ptr %.030.lcssa, i64 8
  %25 = load i32, ptr %24, align 8, !tbaa !179
  %26 = icmp sgt i32 %25, 0
  br i1 %26, label %.lr.ph.i, label %vtable_included.exit.thread

.lr.ph.i:                                         ; preds = %.preheader.i
  %27 = load ptr, ptr %.030.lcssa, align 8, !tbaa !181
  %wide.trip.count.i = zext nneg i32 %25 to i64
  br label %28

28:                                               ; preds = %32, %.lr.ph.i
  %indvars.iv.i = phi i64 [ 0, %.lr.ph.i ], [ %indvars.iv.next.i, %32 ]
  %29 = getelementptr inbounds nuw i64, ptr %27, i64 %indvars.iv.i
  %30 = load i64, ptr %29, align 8, !tbaa !9
  %31 = icmp eq i64 %30, %1
  br i1 %31, label %vtable_included.exit, label %32

32:                                               ; preds = %28
  %indvars.iv.next.i = add nuw nsw i64 %indvars.iv.i, 1
  %exitcond.not.i = icmp eq i64 %indvars.iv.next.i, %wide.trip.count.i
  br i1 %exitcond.not.i, label %vtable_included.exit.thread, label %28, !llvm.loop !191

vtable_included.exit.thread:                      ; preds = %32, %.preheader.i, %.critedge37
  %switch.i38 = icmp ult ptr %.031.lcssa, inttoptr (i64 2 to ptr)
  br i1 %switch.i38, label %vtable_included.exit, label %.preheader.i39

.preheader.i39:                                   ; preds = %vtable_included.exit.thread
  %33 = getelementptr inbounds nuw i8, ptr %.031.lcssa, i64 8
  %34 = load i32, ptr %33, align 8, !tbaa !179
  %35 = icmp sgt i32 %34, 0
  br i1 %35, label %.lr.ph.i41, label %vtable_included.exit

.lr.ph.i41:                                       ; preds = %.preheader.i39
  %36 = load ptr, ptr %.031.lcssa, align 8, !tbaa !181
  %wide.trip.count.i42 = zext nneg i32 %34 to i64
  br label %37

37:                                               ; preds = %41, %.lr.ph.i41
  %indvars.iv.i43 = phi i64 [ 0, %.lr.ph.i41 ], [ %indvars.iv.next.i44, %41 ]
  %38 = getelementptr inbounds nuw i64, ptr %36, i64 %indvars.iv.i43
  %39 = load i64, ptr %38, align 8, !tbaa !9
  %40 = icmp eq i64 %39, %1
  br i1 %40, label %vtable_included.exit46, label %41

41:                                               ; preds = %37
  %indvars.iv.next.i44 = add nuw nsw i64 %indvars.iv.i43, 1
  %exitcond.not.i45 = icmp eq i64 %indvars.iv.next.i44, %wide.trip.count.i42
  br i1 %exitcond.not.i45, label %vtable_included.exit, label %37, !llvm.loop !191

vtable_included.exit46:                           ; preds = %37
  %42 = icmp ne ptr %.029.lcssa, null
  %43 = icmp ne ptr %2, null
  %or.cond3 = and i1 %43, %42
  br i1 %or.cond3, label %44, label %vtable_included.exit

44:                                               ; preds = %vtable_included.exit46
  %45 = load ptr, ptr %.029.lcssa, align 8, !tbaa !181
  %46 = shl i64 %indvars.iv.i43, 32
  %sext = add i64 %46, 4294967296
  %47 = ashr exact i64 %sext, 29
  %48 = getelementptr i8, ptr %45, i64 %47
  %49 = getelementptr i8, ptr %48, i64 -8
  store ptr %49, ptr %2, align 8, !tbaa !402
  br label %vtable_included.exit

vtable_included.exit:                             ; preds = %28, %41, %vtable_included.exit46, %44, %vtable_included.exit.thread, %.preheader.i39, %20
  %.0 = phi i32 [ %23, %20 ], [ 1, %44 ], [ 1, %vtable_included.exit46 ], [ 0, %vtable_included.exit.thread ], [ 0, %.preheader.i39 ], [ 0, %41 ], [ 1, %28 ]
  ret i32 %.0
}